(lp0
S'4286267647552135011091444839110872307806563'
p1
aS'134513637809857724259237265547120227121'
p2
aS'5181029207717560012548897500451685116790713030237737809474288498738'
p3
aS'394941334855388139607620572693334822422575967389792910057641114192918629'
p4
a.